target datalayout = "e-m:e-p270:32:32-p271:32:32-p272:64:64-i64:64-i128:128-f80:128-n8:16:32:64-S128"
target triple = "x86_64-pc-linux-gnu"

%struct.event_signal_map = type { ptr, i32 }
%struct.event_base = type { ptr, ptr, %struct.event_changelist, ptr, %struct.evsig_info, i32, i32, i32, i32, i32, i32, i32, i32, i32, i32, i32, i32, ptr, i32, %struct.evcallback_list, ptr, i32, i32, %struct.event_signal_map, %struct.event_signal_map, %struct.min_heap, %struct.timeval, %struct.evutil_monotonic_timer, %struct.timeval, i64, i64, ptr, ptr, i32, ptr, i32, %struct.timeval, i32, i32, i32, [2 x i32], %struct.event, ptr, %struct.evutil_weakrand_state, %struct.once_event_list, [2 x %struct.evwatch_list] }
%struct.event_changelist = type { ptr, i32, i32 }
%struct.evsig_info = type { %struct.event, [2 x i32], i32, i32, [65 x ptr], ptr, i32 }
%struct.evcallback_list = type { ptr, ptr }
%struct.min_heap = type { ptr, i64, i64 }
%struct.evutil_monotonic_timer = type { i32, %struct.timeval, %struct.timeval }
%struct.timeval = type { i64, i64 }
%struct.event = type { %struct.event_callback, %union.anon.0, i32, i16, i16, ptr, %union.anon.2, %struct.timeval }
%struct.event_callback = type { %struct.anon, i16, i8, i8, %union.anon, ptr }
%struct.anon = type { ptr, ptr }
%union.anon = type { ptr }
%union.anon.0 = type { %struct.anon.1 }
%struct.anon.1 = type { ptr, ptr }
%union.anon.2 = type { %struct.anon.3 }
%struct.anon.3 = type { %struct.anon.4, %struct.timeval }
%struct.anon.4 = type { ptr, ptr }
%struct.evutil_weakrand_state = type { i32 }
%struct.once_event_list = type { ptr }
%struct.evwatch_list = type { ptr, ptr }
%struct.eventop = type { ptr, ptr, ptr, ptr, ptr, ptr, i32, i32, i64 }
%struct.event_dlist = type { ptr }
%struct.evmap_signal = type { %struct.event_dlist }
%struct.anon.5 = type { %struct.anon.6, i16, ptr }
%struct.anon.6 = type { ptr, ptr }

; Function Attrs: nounwind uwtable
define internal void @evmap_signal_init(ptr noundef %0) #0 {
  %2 = alloca ptr, align 8
  store ptr %0, ptr %2, align 8
  br label %3

3:                                                ; preds = %1
  %4 = load ptr, ptr %2, align 8
  %5 = getelementptr inbounds nuw %struct.evmap_signal, ptr %4, i32 0, i32 0
  %6 = getelementptr inbounds nuw %struct.event_dlist, ptr %5, i32 0, i32 0
  store ptr null, ptr %6, align 8
  br label %7

7:                                                ; preds = %3
  ret void
}

; Function Attrs: nounwind uwtable
define internal i32 @evmap_make_space(ptr noundef %0, i32 noundef %1, i32 noundef %2) #0 {
  %4 = alloca i32, align 4
  %5 = alloca ptr, align 8
  %6 = alloca i32, align 4
  %7 = alloca i32, align 4
  %8 = alloca i32, align 4
  %9 = alloca ptr, align 8
  %10 = alloca i32, align 4
  store ptr %0, ptr %5, align 8
  store i32 %1, ptr %6, align 4
  store i32 %2, ptr %7, align 4
  %11 = load ptr, ptr %5, align 8
  %12 = getelementptr inbounds nuw %struct.event_signal_map, ptr %11, i32 0, i32 1
  %13 = load i32, ptr %12, align 8
  %14 = load i32, ptr %6, align 4
  %15 = icmp sle i32 %13, %14
  br i1 %15, label %16, label %81

16:                                               ; preds = %3
  call void @llvm.lifetime.start.p0(i64 4, ptr %8) #6
  %17 = load ptr, ptr %5, align 8
  %18 = getelementptr inbounds nuw %struct.event_signal_map, ptr %17, i32 0, i32 1
  %19 = load i32, ptr %18, align 8
  %20 = icmp ne i32 %19, 0
  br i1 %20, label %21, label %25

21:                                               ; preds = %16
  %22 = load ptr, ptr %5, align 8
  %23 = getelementptr inbounds nuw %struct.event_signal_map, ptr %22, i32 0, i32 1
  %24 = load i32, ptr %23, align 8
  br label %26

25:                                               ; preds = %16
  br label %26

26:                                               ; preds = %25, %21
  %27 = phi i32 [ %24, %21 ], [ 32, %25 ]
  store i32 %27, ptr %8, align 4
  call void @llvm.lifetime.start.p0(i64 8, ptr %9) #6
  %28 = load i32, ptr %6, align 4
  %29 = icmp sgt i32 %28, 1073741823
  br i1 %29, label %30, label %31

30:                                               ; preds = %26
  store i32 -1, ptr %4, align 4
  store i32 1, ptr %10, align 4
  br label %78

31:                                               ; preds = %26
  br label %32

32:                                               ; preds = %36, %31
  %33 = load i32, ptr %8, align 4
  %34 = load i32, ptr %6, align 4
  %35 = icmp sle i32 %33, %34
  br i1 %35, label %36, label %39

36:                                               ; preds = %32
  %37 = load i32, ptr %8, align 4
  %38 = shl i32 %37, 1
  store i32 %38, ptr %8, align 4
  br label %32, !llvm.loop !5

39:                                               ; preds = %32
  %40 = load i32, ptr %8, align 4
  %41 = load i32, ptr %7, align 4
  %42 = sdiv i32 2147483647, %41
  %43 = icmp sgt i32 %40, %42
  br i1 %43, label %44, label %45

44:                                               ; preds = %39
  store i32 -1, ptr %4, align 4
  store i32 1, ptr %10, align 4
  br label %78

45:                                               ; preds = %39
  %46 = load ptr, ptr %5, align 8
  %47 = getelementptr inbounds nuw %struct.event_signal_map, ptr %46, i32 0, i32 0
  %48 = load ptr, ptr %47, align 8
  %49 = load i32, ptr %8, align 4
  %50 = load i32, ptr %7, align 4
  %51 = mul nsw i32 %49, %50
  %52 = sext i32 %51 to i64
  %53 = call ptr @event_mm_realloc_(ptr noundef %48, i64 noundef %52)
  store ptr %53, ptr %9, align 8
  %54 = load ptr, ptr %9, align 8
  %55 = icmp eq ptr %54, null
  br i1 %55, label %56, label %57

56:                                               ; preds = %45
  store i32 -1, ptr %4, align 4
  store i32 1, ptr %10, align 4
  br label %78

57:                                               ; preds = %45
  %58 = load ptr, ptr %9, align 8
  %59 = load ptr, ptr %5, align 8
  %60 = getelementptr inbounds nuw %struct.event_signal_map, ptr %59, i32 0, i32 1
  %61 = load i32, ptr %60, align 8
  %62 = sext i32 %61 to i64
  %63 = getelementptr inbounds ptr, ptr %58, i64 %62
  %64 = load i32, ptr %8, align 4
  %65 = load ptr, ptr %5, align 8
  %66 = getelementptr inbounds nuw %struct.event_signal_map, ptr %65, i32 0, i32 1
  %67 = load i32, ptr %66, align 8
  %68 = sub nsw i32 %64, %67
  %69 = load i32, ptr %7, align 4
  %70 = mul nsw i32 %68, %69
  %71 = sext i32 %70 to i64
  call void @llvm.memset.p0.i64(ptr align 8 %63, i8 0, i64 %71, i1 false)
  %72 = load i32, ptr %8, align 4
  %73 = load ptr, ptr %5, align 8
  %74 = getelementptr inbounds nuw %struct.event_signal_map, ptr %73, i32 0, i32 1
  store i32 %72, ptr %74, align 8
  %75 = load ptr, ptr %9, align 8
  %76 = load ptr, ptr %5, align 8
  %77 = getelementptr inbounds nuw %struct.event_signal_map, ptr %76, i32 0, i32 0
  store ptr %75, ptr %77, align 8
  store i32 0, ptr %10, align 4
  br label %78

78:                                               ; preds = %57, %56, %44, %30
  call void @llvm.lifetime.end.p0(i64 8, ptr %9) #6
  call void @llvm.lifetime.end.p0(i64 4, ptr %8) #6
  %79 = load i32, ptr %10, align 4
  switch i32 %79, label %84 [
    i32 0, label %80
    i32 1, label %82
  ]

80:                                               ; preds = %78
  br label %81

81:                                               ; preds = %80, %3
  store i32 0, ptr %4, align 4
  br label %82

82:                                               ; preds = %81, %78
  %83 = load i32, ptr %4, align 4
  ret i32 %83

84:                                               ; preds = %78
  unreachable
}

; Function Attrs: nounwind uwtable
define hidden i32 @evmap_signal_add_(ptr noundef %0, i32 noundef %1, ptr noundef %2) #0 {
  %4 = alloca i32, align 4
  %5 = alloca ptr, align 8
  %6 = alloca i32, align 4
  %7 = alloca ptr, align 8
  %8 = alloca ptr, align 8
  %9 = alloca ptr, align 8
  %10 = alloca ptr, align 8
  %11 = alloca i32, align 4
  store ptr %0, ptr %5, align 8
  store i32 %1, ptr %6, align 4
  store ptr %2, ptr %7, align 8
  call void @llvm.lifetime.start.p0(i64 8, ptr %8) #6
  %12 = load ptr, ptr %5, align 8
  %13 = getelementptr inbounds nuw %struct.event_base, ptr %12, i32 0, i32 3
  %14 = load ptr, ptr %13, align 8
  store ptr %14, ptr %8, align 8
  call void @llvm.lifetime.start.p0(i64 8, ptr %9) #6
  %15 = load ptr, ptr %5, align 8
  %16 = getelementptr inbounds nuw %struct.event_base, ptr %15, i32 0, i32 24
  store ptr %16, ptr %9, align 8
  call void @llvm.lifetime.start.p0(i64 8, ptr %10) #6
  store ptr null, ptr %10, align 8
  %17 = load i32, ptr %6, align 4
  %18 = icmp slt i32 %17, 0
  br i1 %18, label %22, label %19

19:                                               ; preds = %3
  %20 = load i32, ptr %6, align 4
  %21 = icmp sge i32 %20, 65
  br i1 %21, label %22, label %23

22:                                               ; preds = %19, %3
  store i32 -1, ptr %4, align 4
  store i32 1, ptr %11, align 4
  br label %148

23:                                               ; preds = %19
  %24 = load i32, ptr %6, align 4
  %25 = load ptr, ptr %9, align 8
  %26 = getelementptr inbounds nuw %struct.event_signal_map, ptr %25, i32 0, i32 1
  %27 = load i32, ptr %26, align 8
  %28 = icmp sge i32 %24, %27
  br i1 %28, label %29, label %36

29:                                               ; preds = %23
  %30 = load ptr, ptr %9, align 8
  %31 = load i32, ptr %6, align 4
  %32 = call i32 @evmap_make_space(ptr noundef %30, i32 noundef %31, i32 noundef 8)
  %33 = icmp eq i32 %32, -1
  br i1 %33, label %34, label %35

34:                                               ; preds = %29
  store i32 -1, ptr %4, align 4
  store i32 1, ptr %11, align 4
  br label %148

35:                                               ; preds = %29
  br label %36

36:                                               ; preds = %35, %23
  br label %37

37:                                               ; preds = %36
  %38 = load ptr, ptr %9, align 8
  %39 = getelementptr inbounds nuw %struct.event_signal_map, ptr %38, i32 0, i32 0
  %40 = load ptr, ptr %39, align 8
  %41 = load i32, ptr %6, align 4
  %42 = sext i32 %41 to i64
  %43 = getelementptr inbounds ptr, ptr %40, i64 %42
  %44 = load ptr, ptr %43, align 8
  %45 = icmp eq ptr %44, null
  br i1 %45, label %46, label %83

46:                                               ; preds = %37
  %47 = load ptr, ptr %5, align 8
  %48 = getelementptr inbounds nuw %struct.event_base, ptr %47, i32 0, i32 3
  %49 = load ptr, ptr %48, align 8
  %50 = getelementptr inbounds nuw %struct.eventop, ptr %49, i32 0, i32 8
  %51 = load i64, ptr %50, align 8
  %52 = add i64 8, %51
  %53 = call ptr @event_mm_calloc_(i64 noundef 1, i64 noundef %52)
  %54 = load ptr, ptr %9, align 8
  %55 = getelementptr inbounds nuw %struct.event_signal_map, ptr %54, i32 0, i32 0
  %56 = load ptr, ptr %55, align 8
  %57 = load i32, ptr %6, align 4
  %58 = sext i32 %57 to i64
  %59 = getelementptr inbounds ptr, ptr %56, i64 %58
  store ptr %53, ptr %59, align 8
  %60 = load ptr, ptr %9, align 8
  %61 = getelementptr inbounds nuw %struct.event_signal_map, ptr %60, i32 0, i32 0
  %62 = load ptr, ptr %61, align 8
  %63 = load i32, ptr %6, align 4
  %64 = sext i32 %63 to i64
  %65 = getelementptr inbounds ptr, ptr %62, i64 %64
  %66 = load ptr, ptr %65, align 8
  %67 = icmp eq ptr %66, null
  %68 = xor i1 %67, true
  %69 = xor i1 %68, true
  %70 = zext i1 %69 to i32
  %71 = sext i32 %70 to i64
  %72 = call i64 @llvm.expect.i64(i64 %71, i64 0)
  %73 = icmp ne i64 %72, 0
  br i1 %73, label %74, label %75

74:                                               ; preds = %46
  store i32 -1, ptr %4, align 4
  store i32 1, ptr %11, align 4
  br label %148

75:                                               ; preds = %46
  %76 = load ptr, ptr %9, align 8
  %77 = getelementptr inbounds nuw %struct.event_signal_map, ptr %76, i32 0, i32 0
  %78 = load ptr, ptr %77, align 8
  %79 = load i32, ptr %6, align 4
  %80 = sext i32 %79 to i64
  %81 = getelementptr inbounds ptr, ptr %78, i64 %80
  %82 = load ptr, ptr %81, align 8
  call void @evmap_signal_init(ptr noundef %82)
  br label %83

83:                                               ; preds = %75, %37
  %84 = load ptr, ptr %9, align 8
  %85 = getelementptr inbounds nuw %struct.event_signal_map, ptr %84, i32 0, i32 0
  %86 = load ptr, ptr %85, align 8
  %87 = load i32, ptr %6, align 4
  %88 = sext i32 %87 to i64
  %89 = getelementptr inbounds ptr, ptr %86, i64 %88
  %90 = load ptr, ptr %89, align 8
  store ptr %90, ptr %10, align 8
  br label %91

91:                                               ; preds = %83
  br label %92

92:                                               ; preds = %91
  %93 = load ptr, ptr %10, align 8
  %94 = getelementptr inbounds nuw %struct.evmap_signal, ptr %93, i32 0, i32 0
  %95 = getelementptr inbounds nuw %struct.event_dlist, ptr %94, i32 0, i32 0
  %96 = load ptr, ptr %95, align 8
  %97 = icmp eq ptr %96, null
  br i1 %97, label %98, label %111

98:                                               ; preds = %92
  %99 = load ptr, ptr %8, align 8
  %100 = getelementptr inbounds nuw %struct.eventop, ptr %99, i32 0, i32 2
  %101 = load ptr, ptr %100, align 8
  %102 = load ptr, ptr %5, align 8
  %103 = load ptr, ptr %7, align 8
  %104 = getelementptr inbounds nuw %struct.event, ptr %103, i32 0, i32 2
  %105 = load i32, ptr %104, align 8
  %106 = load ptr, ptr %7, align 8
  %107 = call i32 %101(ptr noundef %102, i32 noundef %105, i16 noundef signext 0, i16 noundef signext 8, ptr noundef %106)
  %108 = icmp eq i32 %107, -1
  br i1 %108, label %109, label %110

109:                                              ; preds = %98
  store i32 -1, ptr %4, align 4
  store i32 1, ptr %11, align 4
  br label %148

110:                                              ; preds = %98
  br label %111

111:                                              ; preds = %110, %92
  br label %112

112:                                              ; preds = %111
  %113 = load ptr, ptr %10, align 8
  %114 = getelementptr inbounds nuw %struct.evmap_signal, ptr %113, i32 0, i32 0
  %115 = getelementptr inbounds nuw %struct.event_dlist, ptr %114, i32 0, i32 0
  %116 = load ptr, ptr %115, align 8
  %117 = load ptr, ptr %7, align 8
  %118 = getelementptr inbounds nuw %struct.event, ptr %117, i32 0, i32 6
  %119 = getelementptr inbounds nuw %struct.anon.5, ptr %118, i32 0, i32 0
  %120 = getelementptr inbounds nuw %struct.anon.6, ptr %119, i32 0, i32 0
  store ptr %116, ptr %120, align 8
  %121 = icmp ne ptr %116, null
  br i1 %121, label %122, label %134

122:                                              ; preds = %112
  %123 = load ptr, ptr %7, align 8
  %124 = getelementptr inbounds nuw %struct.event, ptr %123, i32 0, i32 6
  %125 = getelementptr inbounds nuw %struct.anon.5, ptr %124, i32 0, i32 0
  %126 = getelementptr inbounds nuw %struct.anon.6, ptr %125, i32 0, i32 0
  %127 = load ptr, ptr %10, align 8
  %128 = getelementptr inbounds nuw %struct.evmap_signal, ptr %127, i32 0, i32 0
  %129 = getelementptr inbounds nuw %struct.event_dlist, ptr %128, i32 0, i32 0
  %130 = load ptr, ptr %129, align 8
  %131 = getelementptr inbounds nuw %struct.event, ptr %130, i32 0, i32 6
  %132 = getelementptr inbounds nuw %struct.anon.5, ptr %131, i32 0, i32 0
  %133 = getelementptr inbounds nuw %struct.anon.6, ptr %132, i32 0, i32 1
  store ptr %126, ptr %133, align 8
  br label %134

134:                                              ; preds = %122, %112
  %135 = load ptr, ptr %7, align 8
  %136 = load ptr, ptr %10, align 8
  %137 = getelementptr inbounds nuw %struct.evmap_signal, ptr %136, i32 0, i32 0
  %138 = getelementptr inbounds nuw %struct.event_dlist, ptr %137, i32 0, i32 0
  store ptr %135, ptr %138, align 8
  %139 = load ptr, ptr %10, align 8
  %140 = getelementptr inbounds nuw %struct.evmap_signal, ptr %139, i32 0, i32 0
  %141 = getelementptr inbounds nuw %struct.event_dlist, ptr %140, i32 0, i32 0
  %142 = load ptr, ptr %7, align 8
  %143 = getelementptr inbounds nuw %struct.event, ptr %142, i32 0, i32 6
  %144 = getelementptr inbounds nuw %struct.anon.5, ptr %143, i32 0, i32 0
  %145 = getelementptr inbounds nuw %struct.anon.6, ptr %144, i32 0, i32 1
  store ptr %141, ptr %145, align 8
  br label %146

146:                                              ; preds = %134
  br label %147

147:                                              ; preds = %146
  store i32 1, ptr %4, align 4
  store i32 1, ptr %11, align 4
  br label %148

148:                                              ; preds = %147, %109, %74, %34, %22
  call void @llvm.lifetime.end.p0(i64 8, ptr %10) #6
  call void @llvm.lifetime.end.p0(i64 8, ptr %9) #6
  call void @llvm.lifetime.end.p0(i64 8, ptr %8) #6
  %149 = load i32, ptr %4, align 4
  ret i32 %149
}