; Function Attrs: nounwind uwtable
define hidden range(i32 -1, 2) i32 @evmap_signal_add_(ptr noundef %0, i32 noundef %1, ptr noundef %2) local_unnamed_addr #1 {
  %4 = getelementptr inbounds nuw i8, ptr %0, i64 32
  %5 = load ptr, ptr %4, align 8
  %6 = getelementptr inbounds nuw i8, ptr %0, i64 824
  %or.cond = icmp ugt i32 %1, 64
  br i1 %or.cond, label %evmap_make_space.exit.thread, label %7

7:                                                ; preds = %3
  %8 = getelementptr inbounds nuw i8, ptr %0, i64 832
  %9 = load i32, ptr %8, align 8
  %.not = icmp slt i32 %1, %9
  br i1 %.not, label %evmap_make_space.exit, label %.preheader.preheader.i

.preheader.preheader.i:                           ; preds = %7
  %.not29.i = icmp eq i32 %9, 0
  %spec.select.i = select i1 %.not29.i, i32 32, i32 %9
  br label %.preheader.i

.preheader.i:                                     ; preds = %.preheader.i, %.preheader.preheader.i
  %.025.i = phi i32 [ %10, %.preheader.i ], [ %spec.select.i, %.preheader.preheader.i ]
  %.not30.i = icmp sgt i32 %.025.i, %1
  %10 = shl i32 %.025.i, 1
  br i1 %.not30.i, label %11, label %.preheader.i, !llvm.loop !5

11:                                               ; preds = %.preheader.i
  %12 = icmp sgt i32 %.025.i, 268435455
  br i1 %12, label %evmap_make_space.exit.thread, label %13

13:                                               ; preds = %11
  %14 = load ptr, ptr %6, align 8
  %15 = shl nuw nsw i32 %.025.i, 3
  %16 = zext nneg i32 %15 to i64
  %17 = tail call ptr @event_mm_realloc_(ptr noundef %14, i64 noundef %16) #7
  %18 = icmp eq ptr %17, null
  br i1 %18, label %evmap_make_space.exit.thread, label %19

19:                                               ; preds = %13
  %20 = load i32, ptr %8, align 8
  %21 = sext i32 %20 to i64
  %22 = getelementptr inbounds ptr, ptr %17, i64 %21
  %23 = sub nsw i32 %.025.i, %20
  %24 = shl nsw i32 %23, 3
  %25 = sext i32 %24 to i64
  tail call void @llvm.memset.p0.i64(ptr nonnull align 8 %22, i8 0, i64 %25, i1 false)
  store i32 %.025.i, ptr %8, align 8
  store ptr %17, ptr %6, align 8
  br label %evmap_make_space.exit

evmap_make_space.exit:                            ; preds = %19, %7
  %26 = load ptr, ptr %6, align 8
  %27 = zext nneg i32 %1 to i64
  %28 = getelementptr inbounds nuw ptr, ptr %26, i64 %27
  %29 = load ptr, ptr %28, align 8
  %30 = icmp eq ptr %29, null
  br i1 %30, label %31, label %44

31:                                               ; preds = %evmap_make_space.exit
  %32 = load ptr, ptr %4, align 8
  %33 = getelementptr inbounds nuw i8, ptr %32, i64 56
  %34 = load i64, ptr %33, align 8
  %35 = add i64 %34, 8
  %36 = tail call ptr @event_mm_calloc_(i64 noundef 1, i64 noundef %35) #7
  %37 = load ptr, ptr %6, align 8
  %38 = getelementptr inbounds nuw ptr, ptr %37, i64 %27
  store ptr %36, ptr %38, align 8
  %39 = load ptr, ptr %6, align 8
  %40 = getelementptr inbounds nuw ptr, ptr %39, i64 %27
  %41 = load ptr, ptr %40, align 8
  %42 = icmp eq ptr %41, null
  br i1 %42, label %evmap_make_space.exit.thread, label %43, !prof !6

43:                                               ; preds = %31
  store ptr null, ptr %41, align 8
  %.pre = load ptr, ptr %6, align 8
  %.phi.trans.insert = getelementptr inbounds nuw ptr, ptr %.pre, i64 %27
  %.pre38 = load ptr, ptr %.phi.trans.insert, align 8
  br label %44

44:                                               ; preds = %43, %evmap_make_space.exit
  %45 = phi ptr [ %.pre38, %43 ], [ %29, %evmap_make_space.exit ]
  %46 = load ptr, ptr %45, align 8
  %47 = icmp eq ptr %46, null
  br i1 %47, label %49, label %.thread

.thread:                                          ; preds = %44
  %48 = getelementptr inbounds nuw i8, ptr %2, i64 72
  store ptr %46, ptr %48, align 8
  %.pre39 = load ptr, ptr %45, align 8
  br label %58

49:                                               ; preds = %44
  %50 = getelementptr inbounds nuw i8, ptr %5, i64 16
  %51 = load ptr, ptr %50, align 8
  %52 = getelementptr inbounds nuw i8, ptr %2, i64 56
  %53 = load i32, ptr %52, align 8
  %54 = tail call i32 %51(ptr noundef nonnull %0, i32 noundef %53, i16 noundef signext 0, i16 noundef signext 8, ptr noundef %2) #7
  %55 = icmp eq i32 %54, -1
  br i1 %55, label %evmap_make_space.exit.thread, label %56

56:                                               ; preds = %49
  %.pr = load ptr, ptr %45, align 8
  %57 = getelementptr inbounds nuw i8, ptr %2, i64 72
  store ptr %.pr, ptr %57, align 8
  %.not35 = icmp eq ptr %.pr, null
  br i1 %.not35, label %62, label %58

58:                                               ; preds = %.thread, %56
  %59 = phi ptr [ %.pre39, %.thread ], [ %.pr, %56 ]
  %60 = phi ptr [ %48, %.thread ], [ %57, %56 ]
  %61 = getelementptr inbounds nuw i8, ptr %59, i64 80
  store ptr %60, ptr %61, align 8
  br label %62

62:                                               ; preds = %58, %56
  store ptr %2, ptr %45, align 8
  %63 = getelementptr inbounds nuw i8, ptr %2, i64 80
  store ptr %45, ptr %63, align 8
  br label %evmap_make_space.exit.thread

evmap_make_space.exit.thread:                     ; preds = %13, %11, %49, %31, %3, %62
  %.0 = phi i32 [ 1, %62 ], [ -1, %3 ], [ -1, %31 ], [ -1, %49 ], [ -1, %11 ], [ -1, %13 ]
  ret i32 %.0
}